target datalayout = "e-m:e-p270:32:32-p271:32:32-p272:64:64-i64:64-i128:128-f80:128-n8:16:32:64-S128"
target triple = "x86_64-pc-linux-gnu"

@.str.116 = private unnamed_addr constant [26 x i8] c"wrong number of arguments\00", align 1
@.str.121 = private unnamed_addr constant [18 x i8] c"interval is empty\00", align 1

; Function Attrs: nounwind uwtable
define internal i32 @redis_math_random(ptr noundef %0) #0 {
  %2 = alloca i32, align 4
  %3 = alloca ptr, align 8
  %4 = alloca double, align 8
  %5 = alloca i32, align 4
  %6 = alloca i32, align 4
  %7 = alloca i32, align 4
  %8 = alloca i32, align 4
  store ptr %0, ptr %3, align 8, !tbaa !5
  call void @llvm.lifetime.start.p0(i64 8, ptr %4) #12
  %9 = call i32 @redisLrand48()
  %10 = srem i32 %9, 2147483647
  %11 = sitofp i32 %10 to double
  %12 = fdiv double %11, 0x41DFFFFFFFC00000
  store double %12, ptr %4, align 8, !tbaa !78
  %13 = load ptr, ptr %3, align 8, !tbaa !5
  %14 = call i32 @lua_gettop(ptr noundef %13)
  switch i32 %14, label %61 [
    i32 0, label %15
    i32 1, label %18
    i32 2, label %35
  ]

15:                                               ; preds = %1
  %16 = load ptr, ptr %3, align 8, !tbaa !5
  %17 = load double, ptr %4, align 8, !tbaa !78
  call void @lua_pushnumber(ptr noundef %16, double noundef %17)
  br label %64

18:                                               ; preds = %1
  call void @llvm.lifetime.start.p0(i64 4, ptr %5) #12
  %19 = load ptr, ptr %3, align 8, !tbaa !5
  %20 = call i64 @luaL_checkinteger(ptr noundef %19, i32 noundef 1)
  %21 = trunc i64 %20 to i32
  store i32 %21, ptr %5, align 4, !tbaa !16
  %22 = load i32, ptr %5, align 4, !tbaa !16
  %23 = icmp sle i32 1, %22
  br i1 %23, label %27, label %24

24:                                               ; preds = %18
  %25 = load ptr, ptr %3, align 8, !tbaa !5
  %26 = call i32 @luaL_argerror(ptr noundef %25, i32 noundef 1, ptr noundef @.str.121)
  br label %27

27:                                               ; preds = %24, %18
  %28 = load ptr, ptr %3, align 8, !tbaa !5
  %29 = load double, ptr %4, align 8, !tbaa !78
  %30 = load i32, ptr %5, align 4, !tbaa !16
  %31 = sitofp i32 %30 to double
  %32 = fmul double %29, %31
  %33 = call double @llvm.floor.f64(double %32)
  %34 = fadd double %33, 1.000000e+00
  call void @lua_pushnumber(ptr noundef %28, double noundef %34)
  call void @llvm.lifetime.end.p0(i64 4, ptr %5) #12
  br label %64

35:                                               ; preds = %1
  call void @llvm.lifetime.start.p0(i64 4, ptr %6) #12
  %36 = load ptr, ptr %3, align 8, !tbaa !5
  %37 = call i64 @luaL_checkinteger(ptr noundef %36, i32 noundef 1)
  %38 = trunc i64 %37 to i32
  store i32 %38, ptr %6, align 4, !tbaa !16
  call void @llvm.lifetime.start.p0(i64 4, ptr %7) #12
  %39 = load ptr, ptr %3, align 8, !tbaa !5
  %40 = call i64 @luaL_checkinteger(ptr noundef %39, i32 noundef 2)
  %41 = trunc i64 %40 to i32
  store i32 %41, ptr %7, align 4, !tbaa !16
  %42 = load i32, ptr %6, align 4, !tbaa !16
  %43 = load i32, ptr %7, align 4, !tbaa !16
  %44 = icmp sle i32 %42, %43
  br i1 %44, label %48, label %45

45:                                               ; preds = %35
  %46 = load ptr, ptr %3, align 8, !tbaa !5
  %47 = call i32 @luaL_argerror(ptr noundef %46, i32 noundef 2, ptr noundef @.str.121)
  br label %48

48:                                               ; preds = %45, %35
  %49 = load ptr, ptr %3, align 8, !tbaa !5
  %50 = load double, ptr %4, align 8, !tbaa !78
  %51 = load i32, ptr %7, align 4, !tbaa !16
  %52 = load i32, ptr %6, align 4, !tbaa !16
  %53 = sub nsw i32 %51, %52
  %54 = add nsw i32 %53, 1
  %55 = sitofp i32 %54 to double
  %56 = fmul double %50, %55
  %57 = call double @llvm.floor.f64(double %56)
  %58 = load i32, ptr %6, align 4, !tbaa !16
  %59 = sitofp i32 %58 to double
  %60 = fadd double %57, %59
  call void @lua_pushnumber(ptr noundef %49, double noundef %60)
  call void @llvm.lifetime.end.p0(i64 4, ptr %7) #12
  call void @llvm.lifetime.end.p0(i64 4, ptr %6) #12
  br label %64

61:                                               ; preds = %1
  %62 = load ptr, ptr %3, align 8, !tbaa !5
  %63 = call i32 (ptr, ptr, ...) @luaL_error(ptr noundef %62, ptr noundef @.str.116)
  store i32 %63, ptr %2, align 4
  store i32 1, ptr %8, align 4
  br label %65

64:                                               ; preds = %48, %27, %15
  store i32 1, ptr %2, align 4
  store i32 1, ptr %8, align 4
  br label %65

65:                                               ; preds = %64, %61
  call void @llvm.lifetime.end.p0(i64 8, ptr %4) #12
  %66 = load i32, ptr %2, align 4
  ret i32 %66
}