; Function Attrs: nounwind uwtable
define internal i32 @redis_math_random(ptr noundef %0) #0 {
  %2 = tail call i32 @redisLrand48() #11
  %3 = srem i32 %2, 2147483647
  %4 = sitofp i32 %3 to double
  %5 = fdiv double %4, 0x41DFFFFFFFC00000
  %6 = tail call i32 @lua_gettop(ptr noundef %0) #11
  switch i32 %6, label %33 [
    i32 0, label %7
    i32 1, label %8
    i32 2, label %19
  ]

7:                                                ; preds = %1
  tail call void @lua_pushnumber(ptr noundef %0, double noundef %5) #11
  br label %35

8:                                                ; preds = %1
  %9 = tail call i64 @luaL_checkinteger(ptr noundef %0, i32 noundef 1) #11
  %10 = trunc i64 %9 to i32
  %11 = icmp sgt i32 %10, 0
  br i1 %11, label %14, label %12

12:                                               ; preds = %8
  %13 = tail call i32 @luaL_argerror(ptr noundef %0, i32 noundef 1, ptr noundef nonnull @.str.121) #11
  br label %14

14:                                               ; preds = %12, %8
  %15 = sitofp i32 %10 to double
  %16 = fmul double %5, %15
  %17 = tail call double @llvm.floor.f64(double %16)
  %18 = fadd double %17, 1.000000e+00
  tail call void @lua_pushnumber(ptr noundef %0, double noundef %18) #11
  br label %35

19:                                               ; preds = %1
  %20 = tail call i64 @luaL_checkinteger(ptr noundef %0, i32 noundef 1) #11
  %21 = trunc i64 %20 to i32
  %22 = tail call i64 @luaL_checkinteger(ptr noundef %0, i32 noundef 2) #11
  %23 = trunc i64 %22 to i32
  %.not = icmp sgt i32 %21, %23
  br i1 %.not, label %24, label %26

24:                                               ; preds = %19
  %25 = tail call i32 @luaL_argerror(ptr noundef %0, i32 noundef 2, ptr noundef nonnull @.str.121) #11
  br label %26

26:                                               ; preds = %24, %19
  %reass.sub = sub i32 %23, %21
  %27 = add i32 %reass.sub, 1
  %28 = sitofp i32 %27 to double
  %29 = fmul double %5, %28
  %30 = tail call double @llvm.floor.f64(double %29)
  %31 = sitofp i32 %21 to double
  %32 = fadd double %30, %31
  tail call void @lua_pushnumber(ptr noundef %0, double noundef %32) #11
  br label %35

33:                                               ; preds = %1
  %34 = tail call i32 (ptr, ptr, ...) @luaL_error(ptr noundef %0, ptr noundef nonnull @.str.116) #11
  br label %35

35:                                               ; preds = %7, %14, %26, %33
  %.0 = phi i32 [ %34, %33 ], [ 1, %26 ], [ 1, %14 ], [ 1, %7 ]
  ret i32 %.0
}